
obj/i386/keyb.o:     file format elf32-i386
obj/i386/keyb.o


Disassembly of section .text:

00000000 <keyb_init>:
   0:	55                   	push   ebp
   1:	89 e5                	mov    ebp,esp
   3:	81 ec 38 04 00 00    	sub    esp,0x438
   9:	c6 05 00 00 00 00 00 	mov    BYTE PTR ds:0x0,0x0
  10:	c7 05 00 00 00 00 00 	mov    DWORD PTR ds:0x0,0x0
  17:	00 00 00 
  1a:	c7 44 24 04 c3 00 00 	mov    DWORD PTR [esp+0x4],0xc3
  21:	00 
  22:	8d 85 e4 fb ff ff    	lea    eax,[ebp-0x41c]
  28:	89 04 24             	mov    DWORD PTR [esp],eax
  2b:	e8 fc ff ff ff       	call   2c <keyb_init+0x2c>
  30:	c7 45 e0 00 00 00 00 	mov    DWORD PTR [ebp-0x20],0x0
  37:	c7 45 e4 00 00 00 00 	mov    DWORD PTR [ebp-0x1c],0x0
  3e:	c7 45 e8 00 00 00 00 	mov    DWORD PTR [ebp-0x18],0x0
  45:	c7 45 ec 00 00 00 00 	mov    DWORD PTR [ebp-0x14],0x0
  4c:	c7 45 f0 00 00 00 00 	mov    DWORD PTR [ebp-0x10],0x0
  53:	c7 45 f4 00 00 00 00 	mov    DWORD PTR [ebp-0xc],0x0
  5a:	8d 85 e4 fb ff ff    	lea    eax,[ebp-0x41c]
  60:	89 04 24             	mov    DWORD PTR [esp],eax
  63:	e8 fc ff ff ff       	call   64 <keyb_init+0x64>
  68:	c7 44 24 04 00 00 00 	mov    DWORD PTR [esp+0x4],0x0
  6f:	00 
  70:	c7 04 24 01 00 00 00 	mov    DWORD PTR [esp],0x1
  77:	e8 fc ff ff ff       	call   78 <keyb_init+0x78>
  7c:	c7 44 24 08 00 00 00 	mov    DWORD PTR [esp+0x8],0x0
  83:	00 
  84:	c7 44 24 04 00 00 00 	mov    DWORD PTR [esp+0x4],0x0
  8b:	00 
  8c:	c7 04 24 00 00 00 00 	mov    DWORD PTR [esp],0x0
  93:	e8 fc ff ff ff       	call   94 <keyb_init+0x94>
  98:	90                   	nop
  99:	c9                   	leave  
  9a:	c3                   	ret    

0000009b <readconsole>:
  9b:	55                   	push   ebp
  9c:	89 e5                	mov    ebp,esp
  9e:	83 ec 28             	sub    esp,0x28
  a1:	c7 05 00 00 00 00 00 	mov    DWORD PTR ds:0x0,0x0
  a8:	00 00 00 
  ab:	c7 45 f4 ac 00 00 80 	mov    DWORD PTR [ebp-0xc],0x800000ac
  b2:	e9 b8 00 00 00       	jmp    16f <readconsole+0xd4>
  b7:	a1 00 00 00 00       	mov    eax,ds:0x0
  bc:	0f b6 00             	movzx  eax,BYTE PTR [eax]
  bf:	3c 08                	cmp    al,0x8
  c1:	0f 85 a8 00 00 00    	jne    16f <readconsole+0xd4>
  c7:	8b 45 f4             	mov    eax,DWORD PTR [ebp-0xc]
  ca:	0f b6 40 03          	movzx  eax,BYTE PTR [eax+0x3]
  ce:	84 c0                	test   al,al
  d0:	0f 84 97 00 00 00    	je     16d <readconsole+0xd2>
  d6:	a1 00 00 00 00       	mov    eax,ds:0x0
  db:	3d 00 00 00 00       	cmp    eax,0x0
  e0:	76 15                	jbe    f7 <readconsole+0x5c>
  e2:	a1 00 00 00 00       	mov    eax,ds:0x0
  e7:	83 e8 01             	sub    eax,0x1
  ea:	a3 00 00 00 00       	mov    ds:0x0,eax
  ef:	a1 00 00 00 00       	mov    eax,ds:0x0
  f4:	c6 00 00             	mov    BYTE PTR [eax],0x0
  f7:	8b 45 f4             	mov    eax,DWORD PTR [ebp-0xc]
  fa:	0f b6 40 03          	movzx  eax,BYTE PTR [eax+0x3]
  fe:	8d 50 ff             	lea    edx,[eax-0x1]
 101:	8b 45 f4             	mov    eax,DWORD PTR [ebp-0xc]
 104:	88 50 03             	mov    BYTE PTR [eax+0x3],dl
 107:	8b 45 f4             	mov    eax,DWORD PTR [ebp-0xc]
 10a:	0f b6 40 03          	movzx  eax,BYTE PTR [eax+0x3]
 10e:	0f b6 d0             	movzx  edx,al
 111:	8b 45 f4             	mov    eax,DWORD PTR [ebp-0xc]
 114:	0f b6 40 02          	movzx  eax,BYTE PTR [eax+0x2]
 118:	0f b6 c0             	movzx  eax,al
 11b:	89 54 24 04          	mov    DWORD PTR [esp+0x4],edx
 11f:	89 04 24             	mov    DWORD PTR [esp],eax
 122:	e8 fc ff ff ff       	call   123 <readconsole+0x88>
 127:	c7 44 24 04 01 00 00 	mov    DWORD PTR [esp+0x4],0x1
 12e:	00 
 12f:	c7 04 24 1a 00 00 00 	mov    DWORD PTR [esp],0x1a
 136:	e8 fc ff ff ff       	call   137 <readconsole+0x9c>
 13b:	8b 45 f4             	mov    eax,DWORD PTR [ebp-0xc]
 13e:	0f b6 40 03          	movzx  eax,BYTE PTR [eax+0x3]
 142:	8d 50 ff             	lea    edx,[eax-0x1]
 145:	8b 45 f4             	mov    eax,DWORD PTR [ebp-0xc]
 148:	88 50 03             	mov    BYTE PTR [eax+0x3],dl
 14b:	8b 45 f4             	mov    eax,DWORD PTR [ebp-0xc]
 14e:	0f b6 40 03          	movzx  eax,BYTE PTR [eax+0x3]
 152:	0f b6 d0             	movzx  edx,al
 155:	8b 45 f4             	mov    eax,DWORD PTR [ebp-0xc]
 158:	0f b6 40 02          	movzx  eax,BYTE PTR [eax+0x2]
 15c:	0f b6 c0             	movzx  eax,al
 15f:	89 54 24 04          	mov    DWORD PTR [esp+0x4],edx
 163:	89 04 24             	mov    DWORD PTR [esp],eax
 166:	e8 fc ff ff ff       	call   167 <readconsole+0xcc>
 16b:	eb 35                	jmp    1a2 <readconsole+0x107>
 16d:	eb 33                	jmp    1a2 <readconsole+0x107>
 16f:	a1 00 00 00 00       	mov    eax,ds:0x0
 174:	3b 45 0c             	cmp    eax,DWORD PTR [ebp+0xc]
 177:	0f 82 3a ff ff ff    	jb     b7 <readconsole+0x1c>
 17d:	8b 45 0c             	mov    eax,DWORD PTR [ebp+0xc]
 180:	89 44 24 08          	mov    DWORD PTR [esp+0x8],eax
 184:	c7 44 24 04 00 00 00 	mov    DWORD PTR [esp+0x4],0x0
 18b:	00 
 18c:	8b 45 08             	mov    eax,DWORD PTR [ebp+0x8]
 18f:	89 04 24             	mov    DWORD PTR [esp],eax
 192:	e8 fc ff ff ff       	call   193 <readconsole+0xf8>
 197:	c7 05 00 00 00 00 00 	mov    DWORD PTR ds:0x0,0x0
 19e:	00 00 00 
 1a1:	90                   	nop
 1a2:	c9                   	leave  
 1a3:	c3                   	ret    

000001a4 <readkey>:
 1a4:	55                   	push   ebp
 1a5:	89 e5                	mov    ebp,esp
 1a7:	83 ec 28             	sub    esp,0x28
 1aa:	c7 45 f4 ac 00 00 80 	mov    DWORD PTR [ebp-0xc],0x800000ac
 1b1:	c7 04 24 64 00 00 00 	mov    DWORD PTR [esp],0x64
 1b8:	e8 fc ff ff ff       	call   1b9 <readkey+0x15>
 1bd:	83 e0 01             	and    eax,0x1
 1c0:	85 c0                	test   eax,eax
 1c2:	75 05                	jne    1c9 <readkey+0x25>
 1c4:	e9 9b 06 00 00       	jmp    864 <readkey+0x6c0>
 1c9:	c7 04 24 60 00 00 00 	mov    DWORD PTR [esp],0x60
 1d0:	e8 fc ff ff ff       	call   1d1 <readkey+0x2d>
 1d5:	88 45 f3             	mov    BYTE PTR [ebp-0xd],al
 1d8:	0f b6 45 f3          	movzx  eax,BYTE PTR [ebp-0xd]
 1dc:	84 c0                	test   al,al
 1de:	79 4d                	jns    22d <readkey+0x89>
 1e0:	80 7d f3 aa          	cmp    BYTE PTR [ebp-0xd],0xaa
 1e4:	74 06                	je     1ec <readkey+0x48>
 1e6:	80 7d f3 b7          	cmp    BYTE PTR [ebp-0xd],0xb7
 1ea:	75 0c                	jne    1f8 <readkey+0x54>
 1ec:	c6 05 00 00 00 00 00 	mov    BYTE PTR ds:0x0,0x0
 1f3:	e9 6c 06 00 00       	jmp    864 <readkey+0x6c0>
 1f8:	80 7d f3 b8          	cmp    BYTE PTR [ebp-0xd],0xb8
 1fc:	74 06                	je     204 <readkey+0x60>
 1fe:	80 7d f3 38          	cmp    BYTE PTR [ebp-0xd],0x38
 202:	75 0c                	jne    210 <readkey+0x6c>
 204:	c6 05 00 00 00 00 00 	mov    BYTE PTR ds:0x0,0x0
 20b:	e9 54 06 00 00       	jmp    864 <readkey+0x6c0>
 210:	80 7d f3 9d          	cmp    BYTE PTR [ebp-0xd],0x9d
 214:	74 06                	je     21c <readkey+0x78>
 216:	80 7d f3 9d          	cmp    BYTE PTR [ebp-0xd],0x9d
 21a:	75 0c                	jne    228 <readkey+0x84>
 21c:	c6 05 00 00 00 00 00 	mov    BYTE PTR ds:0x0,0x0
 223:	e9 3c 06 00 00       	jmp    864 <readkey+0x6c0>
 228:	e9 37 06 00 00       	jmp    864 <readkey+0x6c0>
 22d:	a1 00 00 00 00       	mov    eax,ds:0x0
 232:	8d 50 01             	lea    edx,[eax+0x1]
 235:	89 15 00 00 00 00    	mov    DWORD PTR ds:0x0,edx
 23b:	3d 00 01 00 00       	cmp    eax,0x100
 240:	75 05                	jne    247 <readkey+0xa3>
 242:	e9 1d 06 00 00       	jmp    864 <readkey+0x6c0>
 247:	0f b6 45 f3          	movzx  eax,BYTE PTR [ebp-0xd]
 24b:	83 e8 0e             	sub    eax,0xe
 24e:	83 f8 41             	cmp    eax,0x41
 251:	0f 87 1c 01 00 00    	ja     373 <readkey+0x1cf>
 257:	8b 04 85 24 01 00 00 	mov    eax,DWORD PTR [eax*4+0x124]
 25e:	ff e0                	jmp    eax
 260:	c7 04 24 c7 00 00 00 	mov    DWORD PTR [esp],0xc7
 267:	e8 fc ff ff ff       	call   268 <readkey+0xc4>
 26c:	e9 f3 05 00 00       	jmp    864 <readkey+0x6c0>
 271:	8b 45 f4             	mov    eax,DWORD PTR [ebp-0xc]
 274:	c6 40 02 00          	mov    BYTE PTR [eax+0x2],0x0
 278:	e9 e7 05 00 00       	jmp    864 <readkey+0x6c0>
 27d:	c7 04 24 00 00 00 00 	mov    DWORD PTR [esp],0x0
 284:	e8 fc ff ff ff       	call   285 <readkey+0xe1>
 289:	89 45 ec             	mov    DWORD PTR [ebp-0x14],eax
 28c:	8b 45 f4             	mov    eax,DWORD PTR [ebp-0xc]
 28f:	c6 40 02 19          	mov    BYTE PTR [eax+0x2],0x19
 293:	e9 cc 05 00 00       	jmp    864 <readkey+0x6c0>
 298:	0f b6 05 00 00 00 00 	movzx  eax,BYTE PTR ds:0x0
 29f:	83 c8 01             	or     eax,0x1
 2a2:	a2 00 00 00 00       	mov    ds:0x0,al
 2a7:	a1 00 00 00 00       	mov    eax,ds:0x0
 2ac:	83 e8 01             	sub    eax,0x1
 2af:	a3 00 00 00 00       	mov    ds:0x0,eax
 2b4:	e9 ab 05 00 00       	jmp    864 <readkey+0x6c0>
 2b9:	0f b6 05 00 00 00 00 	movzx  eax,BYTE PTR ds:0x0
 2c0:	83 c8 01             	or     eax,0x1
 2c3:	a2 00 00 00 00       	mov    ds:0x0,al
 2c8:	a1 00 00 00 00       	mov    eax,ds:0x0
 2cd:	83 e8 01             	sub    eax,0x1
 2d0:	a3 00 00 00 00       	mov    ds:0x0,eax
 2d5:	e9 8a 05 00 00       	jmp    864 <readkey+0x6c0>
 2da:	0f b6 05 00 00 00 00 	movzx  eax,BYTE PTR ds:0x0
 2e1:	83 c8 02             	or     eax,0x2
 2e4:	a2 00 00 00 00       	mov    ds:0x0,al
 2e9:	a1 00 00 00 00       	mov    eax,ds:0x0
 2ee:	83 e8 01             	sub    eax,0x1
 2f1:	a3 00 00 00 00       	mov    ds:0x0,eax
 2f6:	e9 69 05 00 00       	jmp    864 <readkey+0x6c0>
 2fb:	a1 00 00 00 00       	mov    eax,ds:0x0
 300:	c6 00 08             	mov    BYTE PTR [eax],0x8
 303:	e9 5c 05 00 00       	jmp    864 <readkey+0x6c0>
 308:	0f b6 05 00 00 00 00 	movzx  eax,BYTE PTR ds:0x0
 30f:	0f b6 c0             	movzx  eax,al
 312:	83 e0 08             	and    eax,0x8
 315:	85 c0                	test   eax,eax
 317:	74 09                	je     322 <readkey+0x17e>
 319:	c6 05 00 00 00 00 00 	mov    BYTE PTR ds:0x0,0x0
 320:	eb 0f                	jmp    331 <readkey+0x18d>
 322:	0f b6 05 00 00 00 00 	movzx  eax,BYTE PTR ds:0x0
 329:	83 c8 08             	or     eax,0x8
 32c:	a2 00 00 00 00       	mov    ds:0x0,al
 331:	a1 00 00 00 00       	mov    eax,ds:0x0
 336:	83 e8 01             	sub    eax,0x1
 339:	a3 00 00 00 00       	mov    ds:0x0,eax
 33e:	e9 21 05 00 00       	jmp    864 <readkey+0x6c0>
 343:	c7 04 24 60 00 00 00 	mov    DWORD PTR [esp],0x60
 34a:	e8 fc ff ff ff       	call   34b <readkey+0x1a7>
 34f:	88 45 f3             	mov    BYTE PTR [ebp-0xd],al
 352:	0f b6 05 00 00 00 00 	movzx  eax,BYTE PTR ds:0x0
 359:	83 c8 04             	or     eax,0x4
 35c:	a2 00 00 00 00       	mov    ds:0x0,al
 361:	a1 00 00 00 00       	mov    eax,ds:0x0
 366:	83 e8 01             	sub    eax,0x1
 369:	a3 00 00 00 00       	mov    ds:0x0,eax
 36e:	e9 f1 04 00 00       	jmp    864 <readkey+0x6c0>
 373:	0f b6 05 00 00 00 00 	movzx  eax,BYTE PTR ds:0x0
 37a:	0f b6 c0             	movzx  eax,al
 37d:	83 e0 04             	and    eax,0x4
 380:	85 c0                	test   eax,eax
 382:	0f 84 67 03 00 00    	je     6ef <readkey+0x54b>
 388:	0f b6 45 f3          	movzx  eax,BYTE PTR [ebp-0xd]
 38c:	83 e8 10             	sub    eax,0x10
 38f:	83 f8 22             	cmp    eax,0x22
 392:	0f 87 57 03 00 00    	ja     6ef <readkey+0x54b>
 398:	8b 04 85 2c 02 00 00 	mov    eax,DWORD PTR [eax*4+0x22c]
 39f:	ff e0                	jmp    eax
 3a1:	a1 00 00 00 00       	mov    eax,ds:0x0
 3a6:	8d 50 01             	lea    edx,[eax+0x1]
 3a9:	89 15 00 00 00 00    	mov    DWORD PTR ds:0x0,edx
 3af:	c6 00 00             	mov    BYTE PTR [eax],0x0
 3b2:	c7 04 24 d0 00 00 00 	mov    DWORD PTR [esp],0xd0
 3b9:	e8 fc ff ff ff       	call   3ba <readkey+0x216>
 3be:	e9 a1 04 00 00       	jmp    864 <readkey+0x6c0>
 3c3:	a1 00 00 00 00       	mov    eax,ds:0x0
 3c8:	8d 50 01             	lea    edx,[eax+0x1]
 3cb:	89 15 00 00 00 00    	mov    DWORD PTR ds:0x0,edx
 3d1:	c6 00 01             	mov    BYTE PTR [eax],0x1
 3d4:	c7 04 24 d3 00 00 00 	mov    DWORD PTR [esp],0xd3
 3db:	e8 fc ff ff ff       	call   3dc <readkey+0x238>
 3e0:	e9 7f 04 00 00       	jmp    864 <readkey+0x6c0>
 3e5:	a1 00 00 00 00       	mov    eax,ds:0x0
 3ea:	8d 50 01             	lea    edx,[eax+0x1]
 3ed:	89 15 00 00 00 00    	mov    DWORD PTR ds:0x0,edx
 3f3:	c6 00 02             	mov    BYTE PTR [eax],0x2
 3f6:	c7 04 24 d6 00 00 00 	mov    DWORD PTR [esp],0xd6
 3fd:	e8 fc ff ff ff       	call   3fe <readkey+0x25a>
 402:	e9 5d 04 00 00       	jmp    864 <readkey+0x6c0>
 407:	c7 04 24 d9 00 00 00 	mov    DWORD PTR [esp],0xd9
 40e:	e8 fc ff ff ff       	call   40f <readkey+0x26b>
 413:	e8 fc ff ff ff       	call   414 <readkey+0x270>
 418:	c7 44 24 04 0f 00 00 	mov    DWORD PTR [esp+0x4],0xf
 41f:	00 
 420:	89 04 24             	mov    DWORD PTR [esp],eax
 423:	e8 fc ff ff ff       	call   424 <readkey+0x280>
 428:	e9 37 04 00 00       	jmp    864 <readkey+0x6c0>
 42d:	a1 00 00 00 00       	mov    eax,ds:0x0
 432:	8d 50 01             	lea    edx,[eax+0x1]
 435:	89 15 00 00 00 00    	mov    DWORD PTR ds:0x0,edx
 43b:	c6 00 04             	mov    BYTE PTR [eax],0x4
 43e:	c7 04 24 dc 00 00 00 	mov    DWORD PTR [esp],0xdc
 445:	e8 fc ff ff ff       	call   446 <readkey+0x2a2>
 44a:	e9 15 04 00 00       	jmp    864 <readkey+0x6c0>
 44f:	a1 00 00 00 00       	mov    eax,ds:0x0
 454:	8d 50 01             	lea    edx,[eax+0x1]
 457:	89 15 00 00 00 00    	mov    DWORD PTR ds:0x0,edx
 45d:	c6 00 05             	mov    BYTE PTR [eax],0x5
 460:	c7 04 24 df 00 00 00 	mov    DWORD PTR [esp],0xdf
 467:	e8 fc ff ff ff       	call   468 <readkey+0x2c4>
 46c:	e9 f3 03 00 00       	jmp    864 <readkey+0x6c0>
 471:	a1 00 00 00 00       	mov    eax,ds:0x0
 476:	8d 50 01             	lea    edx,[eax+0x1]
 479:	89 15 00 00 00 00    	mov    DWORD PTR ds:0x0,edx
 47f:	c6 00 06             	mov    BYTE PTR [eax],0x6
 482:	c7 04 24 e2 00 00 00 	mov    DWORD PTR [esp],0xe2
 489:	e8 fc ff ff ff       	call   48a <readkey+0x2e6>
 48e:	e9 d1 03 00 00       	jmp    864 <readkey+0x6c0>
 493:	a1 00 00 00 00       	mov    eax,ds:0x0
 498:	8d 50 01             	lea    edx,[eax+0x1]
 49b:	89 15 00 00 00 00    	mov    DWORD PTR ds:0x0,edx
 4a1:	c6 00 07             	mov    BYTE PTR [eax],0x7
 4a4:	c7 04 24 e5 00 00 00 	mov    DWORD PTR [esp],0xe5
 4ab:	e8 fc ff ff ff       	call   4ac <readkey+0x308>
 4b0:	e9 af 03 00 00       	jmp    864 <readkey+0x6c0>
 4b5:	a1 00 00 00 00       	mov    eax,ds:0x0
 4ba:	8d 50 01             	lea    edx,[eax+0x1]
 4bd:	89 15 00 00 00 00    	mov    DWORD PTR ds:0x0,edx
 4c3:	ba 1c 00 00 00       	mov    edx,0x1c
 4c8:	88 10                	mov    BYTE PTR [eax],dl
 4ca:	c7 04 24 1c 00 00 00 	mov    DWORD PTR [esp],0x1c
 4d1:	e8 fc ff ff ff       	call   4d2 <readkey+0x32e>
 4d6:	e9 89 03 00 00       	jmp    864 <readkey+0x6c0>
 4db:	a1 00 00 00 00       	mov    eax,ds:0x0
 4e0:	8d 50 01             	lea    edx,[eax+0x1]
 4e3:	89 15 00 00 00 00    	mov    DWORD PTR ds:0x0,edx
 4e9:	c6 00 0a             	mov    BYTE PTR [eax],0xa
 4ec:	c7 04 24 e8 00 00 00 	mov    DWORD PTR [esp],0xe8
 4f3:	e8 fc ff ff ff       	call   4f4 <readkey+0x350>
 4f8:	e9 67 03 00 00       	jmp    864 <readkey+0x6c0>
 4fd:	a1 00 00 00 00       	mov    eax,ds:0x0
 502:	8d 50 01             	lea    edx,[eax+0x1]
 505:	89 15 00 00 00 00    	mov    DWORD PTR ds:0x0,edx
 50b:	c6 00 69             	mov    BYTE PTR [eax],0x69
 50e:	c7 04 24 eb 00 00 00 	mov    DWORD PTR [esp],0xeb
 515:	e8 fc ff ff ff       	call   516 <readkey+0x372>
 51a:	e9 45 03 00 00       	jmp    864 <readkey+0x6c0>
 51f:	a1 00 00 00 00       	mov    eax,ds:0x0
 524:	8d 50 01             	lea    edx,[eax+0x1]
 527:	89 15 00 00 00 00    	mov    DWORD PTR ds:0x0,edx
 52d:	c6 00 67             	mov    BYTE PTR [eax],0x67
 530:	c7 04 24 ee 00 00 00 	mov    DWORD PTR [esp],0xee
 537:	e8 fc ff ff ff       	call   538 <readkey+0x394>
 53c:	e9 23 03 00 00       	jmp    864 <readkey+0x6c0>
 541:	a1 00 00 00 00       	mov    eax,ds:0x0
 546:	8d 50 01             	lea    edx,[eax+0x1]
 549:	89 15 00 00 00 00    	mov    DWORD PTR ds:0x0,edx
 54f:	c6 00 6c             	mov    BYTE PTR [eax],0x6c
 552:	c7 04 24 f1 00 00 00 	mov    DWORD PTR [esp],0xf1
 559:	e8 fc ff ff ff       	call   55a <readkey+0x3b6>
 55e:	e9 01 03 00 00       	jmp    864 <readkey+0x6c0>
 563:	a1 00 00 00 00       	mov    eax,ds:0x0
 568:	8d 50 01             	lea    edx,[eax+0x1]
 56b:	89 15 00 00 00 00    	mov    DWORD PTR ds:0x0,edx
 571:	c6 00 0e             	mov    BYTE PTR [eax],0xe
 574:	c7 04 24 f4 00 00 00 	mov    DWORD PTR [esp],0xf4
 57b:	e8 fc ff ff ff       	call   57c <readkey+0x3d8>
 580:	e9 df 02 00 00       	jmp    864 <readkey+0x6c0>
 585:	a1 00 00 00 00       	mov    eax,ds:0x0
 58a:	8d 50 01             	lea    edx,[eax+0x1]
 58d:	89 15 00 00 00 00    	mov    DWORD PTR ds:0x0,edx
 593:	c6 00 0f             	mov    BYTE PTR [eax],0xf
 596:	c7 04 24 f7 00 00 00 	mov    DWORD PTR [esp],0xf7
 59d:	e8 fc ff ff ff       	call   59e <readkey+0x3fa>
 5a2:	e9 bd 02 00 00       	jmp    864 <readkey+0x6c0>
 5a7:	a1 00 00 00 00       	mov    eax,ds:0x0
 5ac:	8d 50 01             	lea    edx,[eax+0x1]
 5af:	89 15 00 00 00 00    	mov    DWORD PTR ds:0x0,edx
 5b5:	c6 00 10             	mov    BYTE PTR [eax],0x10
 5b8:	c7 04 24 fa 00 00 00 	mov    DWORD PTR [esp],0xfa
 5bf:	e8 fc ff ff ff       	call   5c0 <readkey+0x41c>
 5c4:	e9 9b 02 00 00       	jmp    864 <readkey+0x6c0>
 5c9:	a1 00 00 00 00       	mov    eax,ds:0x0
 5ce:	8d 50 01             	lea    edx,[eax+0x1]
 5d1:	89 15 00 00 00 00    	mov    DWORD PTR ds:0x0,edx
 5d7:	c6 00 11             	mov    BYTE PTR [eax],0x11
 5da:	c7 04 24 fd 00 00 00 	mov    DWORD PTR [esp],0xfd
 5e1:	e8 fc ff ff ff       	call   5e2 <readkey+0x43e>
 5e6:	e9 79 02 00 00       	jmp    864 <readkey+0x6c0>
 5eb:	a1 00 00 00 00       	mov    eax,ds:0x0
 5f0:	8d 50 01             	lea    edx,[eax+0x1]
 5f3:	89 15 00 00 00 00    	mov    DWORD PTR ds:0x0,edx
 5f9:	c6 00 12             	mov    BYTE PTR [eax],0x12
 5fc:	c7 04 24 00 01 00 00 	mov    DWORD PTR [esp],0x100
 603:	e8 fc ff ff ff       	call   604 <readkey+0x460>
 608:	e9 57 02 00 00       	jmp    864 <readkey+0x6c0>
 60d:	a1 00 00 00 00       	mov    eax,ds:0x0
 612:	8d 50 01             	lea    edx,[eax+0x1]
 615:	89 15 00 00 00 00    	mov    DWORD PTR ds:0x0,edx
 61b:	c6 00 15             	mov    BYTE PTR [eax],0x15
 61e:	c7 04 24 03 01 00 00 	mov    DWORD PTR [esp],0x103
 625:	e8 fc ff ff ff       	call   626 <readkey+0x482>
 62a:	e9 35 02 00 00       	jmp    864 <readkey+0x6c0>
 62f:	a1 00 00 00 00       	mov    eax,ds:0x0
 634:	8d 50 01             	lea    edx,[eax+0x1]
 637:	89 15 00 00 00 00    	mov    DWORD PTR ds:0x0,edx
 63d:	c6 00 16             	mov    BYTE PTR [eax],0x16
 640:	c7 04 24 06 01 00 00 	mov    DWORD PTR [esp],0x106
 647:	e8 fc ff ff ff       	call   648 <readkey+0x4a4>
 64c:	e9 13 02 00 00       	jmp    864 <readkey+0x6c0>
 651:	a1 00 00 00 00       	mov    eax,ds:0x0
 656:	8d 50 01             	lea    edx,[eax+0x1]
 659:	89 15 00 00 00 00    	mov    DWORD PTR ds:0x0,edx
 65f:	c6 00 18             	mov    BYTE PTR [eax],0x18
 662:	c7 04 24 09 01 00 00 	mov    DWORD PTR [esp],0x109
 669:	e8 fc ff ff ff       	call   66a <readkey+0x4c6>
 66e:	e9 f1 01 00 00       	jmp    864 <readkey+0x6c0>
 673:	a1 00 00 00 00       	mov    eax,ds:0x0
 678:	8d 50 01             	lea    edx,[eax+0x1]
 67b:	89 15 00 00 00 00    	mov    DWORD PTR ds:0x0,edx
 681:	c6 00 19             	mov    BYTE PTR [eax],0x19
 684:	c7 04 24 0c 01 00 00 	mov    DWORD PTR [esp],0x10c
 68b:	e8 fc ff ff ff       	call   68c <readkey+0x4e8>
 690:	e9 cf 01 00 00       	jmp    864 <readkey+0x6c0>
 695:	a1 00 00 00 00       	mov    eax,ds:0x0
 69a:	8d 50 01             	lea    edx,[eax+0x1]
 69d:	89 15 00 00 00 00    	mov    DWORD PTR ds:0x0,edx
 6a3:	c6 00 1a             	mov    BYTE PTR [eax],0x1a
 6a6:	c7 04 24 0f 01 00 00 	mov    DWORD PTR [esp],0x10f
 6ad:	e8 fc ff ff ff       	call   6ae <readkey+0x50a>
 6b2:	e9 ad 01 00 00       	jmp    864 <readkey+0x6c0>
 6b7:	a1 00 00 00 00       	mov    eax,ds:0x0
 6bc:	8d 50 01             	lea    edx,[eax+0x1]
 6bf:	89 15 00 00 00 00    	mov    DWORD PTR ds:0x0,edx
 6c5:	c6 00 1b             	mov    BYTE PTR [eax],0x1b
 6c8:	c7 04 24 12 01 00 00 	mov    DWORD PTR [esp],0x112
 6cf:	e8 fc ff ff ff       	call   6d0 <readkey+0x52c>
 6d4:	e9 8b 01 00 00       	jmp    864 <readkey+0x6c0>
 6d9:	a1 00 00 00 00       	mov    eax,ds:0x0
 6de:	8d 50 01             	lea    edx,[eax+0x1]
 6e1:	89 15 00 00 00 00    	mov    DWORD PTR ds:0x0,edx
 6e7:	c6 00 1c             	mov    BYTE PTR [eax],0x1c
 6ea:	e9 75 01 00 00       	jmp    864 <readkey+0x6c0>
 6ef:	0f b6 05 00 00 00 00 	movzx  eax,BYTE PTR ds:0x0
 6f6:	0f b6 c0             	movzx  eax,al
 6f9:	83 e0 04             	and    eax,0x4
 6fc:	85 c0                	test   eax,eax
 6fe:	74 2f                	je     72f <readkey+0x58b>
 700:	0f b6 05 00 00 00 00 	movzx  eax,BYTE PTR ds:0x0
 707:	0f b6 c0             	movzx  eax,al
 70a:	83 e0 02             	and    eax,0x2
 70d:	85 c0                	test   eax,eax
 70f:	74 1e                	je     72f <readkey+0x58b>
 711:	80 7d f3 53          	cmp    BYTE PTR [ebp-0xd],0x53
 715:	75 18                	jne    72f <readkey+0x58b>
 717:	c7 04 24 15 01 00 00 	mov    DWORD PTR [esp],0x115
 71e:	e8 fc ff ff ff       	call   71f <readkey+0x57b>
 723:	c7 04 24 01 00 00 00 	mov    DWORD PTR [esp],0x1
 72a:	e8 fc ff ff ff       	call   72b <readkey+0x587>
 72f:	0f b6 05 00 00 00 00 	movzx  eax,BYTE PTR ds:0x0
 736:	0f b6 c0             	movzx  eax,al
 739:	83 e0 08             	and    eax,0x8
 73c:	85 c0                	test   eax,eax
 73e:	0f 84 aa 00 00 00    	je     7ee <readkey+0x64a>
 744:	0f b6 45 f3          	movzx  eax,BYTE PTR [ebp-0xd]
 748:	8b 04 85 00 00 00 00 	mov    eax,DWORD PTR [eax*4+0x0]
 74f:	0f b6 00             	movzx  eax,BYTE PTR [eax]
 752:	88 45 eb             	mov    BYTE PTR [ebp-0x15],al
 755:	80 7d eb 40          	cmp    BYTE PTR [ebp-0x15],0x40
 759:	7e 4d                	jle    7a8 <readkey+0x604>
 75b:	80 7d eb 5a          	cmp    BYTE PTR [ebp-0x15],0x5a
 75f:	7f 47                	jg     7a8 <readkey+0x604>
 761:	0f b6 05 00 00 00 00 	movzx  eax,BYTE PTR ds:0x0
 768:	0f b6 c0             	movzx  eax,al
 76b:	83 e0 01             	and    eax,0x1
 76e:	85 c0                	test   eax,eax
 770:	75 36                	jne    7a8 <readkey+0x604>
 772:	0f b6 45 eb          	movzx  eax,BYTE PTR [ebp-0x15]
 776:	83 c0 20             	add    eax,0x20
 779:	88 45 eb             	mov    BYTE PTR [ebp-0x15],al
 77c:	a1 00 00 00 00       	mov    eax,ds:0x0
 781:	8d 50 01             	lea    edx,[eax+0x1]
 784:	89 15 00 00 00 00    	mov    DWORD PTR ds:0x0,edx
 78a:	0f b6 55 eb          	movzx  edx,BYTE PTR [ebp-0x15]
 78e:	88 10                	mov    BYTE PTR [eax],dl
 790:	0f b6 45 f3          	movzx  eax,BYTE PTR [ebp-0xd]
 794:	8b 04 85 00 00 00 00 	mov    eax,DWORD PTR [eax*4+0x0]
 79b:	89 04 24             	mov    DWORD PTR [esp],eax
 79e:	e8 fc ff ff ff       	call   79f <readkey+0x5fb>
 7a3:	e9 bc 00 00 00       	jmp    864 <readkey+0x6c0>
 7a8:	80 7d eb 40          	cmp    BYTE PTR [ebp-0x15],0x40
 7ac:	7e 40                	jle    7ee <readkey+0x64a>
 7ae:	80 7d eb 5a          	cmp    BYTE PTR [ebp-0x15],0x5a
 7b2:	7f 3a                	jg     7ee <readkey+0x64a>
 7b4:	0f b6 05 00 00 00 00 	movzx  eax,BYTE PTR ds:0x0
 7bb:	0f b6 c0             	movzx  eax,al
 7be:	83 e0 01             	and    eax,0x1
 7c1:	85 c0                	test   eax,eax
 7c3:	74 29                	je     7ee <readkey+0x64a>
 7c5:	a1 00 00 00 00       	mov    eax,ds:0x0
 7ca:	8d 50 01             	lea    edx,[eax+0x1]
 7cd:	89 15 00 00 00 00    	mov    DWORD PTR ds:0x0,edx
 7d3:	0f b6 55 eb          	movzx  edx,BYTE PTR [ebp-0x15]
 7d7:	88 10                	mov    BYTE PTR [eax],dl
 7d9:	0f b6 45 f3          	movzx  eax,BYTE PTR [ebp-0xd]
 7dd:	8b 04 85 00 00 00 00 	mov    eax,DWORD PTR [eax*4+0x0]
 7e4:	89 04 24             	mov    DWORD PTR [esp],eax
 7e7:	e8 fc ff ff ff       	call   7e8 <readkey+0x644>
 7ec:	eb 76                	jmp    864 <readkey+0x6c0>
 7ee:	0f b6 05 00 00 00 00 	movzx  eax,BYTE PTR ds:0x0
 7f5:	0f b6 c0             	movzx  eax,al
 7f8:	83 e0 01             	and    eax,0x1
 7fb:	85 c0                	test   eax,eax
 7fd:	74 33                	je     832 <readkey+0x68e>
 7ff:	0f b6 45 f3          	movzx  eax,BYTE PTR [ebp-0xd]
 803:	8b 04 85 00 00 00 00 	mov    eax,DWORD PTR [eax*4+0x0]
 80a:	89 04 24             	mov    DWORD PTR [esp],eax
 80d:	e8 fc ff ff ff       	call   80e <readkey+0x66a>
 812:	a1 00 00 00 00       	mov    eax,ds:0x0
 817:	8d 50 01             	lea    edx,[eax+0x1]
 81a:	89 15 00 00 00 00    	mov    DWORD PTR ds:0x0,edx
 820:	0f b6 55 f3          	movzx  edx,BYTE PTR [ebp-0xd]
 824:	8b 14 95 00 00 00 00 	mov    edx,DWORD PTR [edx*4+0x0]
 82b:	0f b6 12             	movzx  edx,BYTE PTR [edx]
 82e:	88 10                	mov    BYTE PTR [eax],dl
 830:	eb 31                	jmp    863 <readkey+0x6bf>
 832:	0f b6 45 f3          	movzx  eax,BYTE PTR [ebp-0xd]
 836:	8b 04 85 00 00 00 00 	mov    eax,DWORD PTR [eax*4+0x0]
 83d:	89 04 24             	mov    DWORD PTR [esp],eax
 840:	e8 fc ff ff ff       	call   841 <readkey+0x69d>
 845:	a1 00 00 00 00       	mov    eax,ds:0x0
 84a:	8d 50 01             	lea    edx,[eax+0x1]
 84d:	89 15 00 00 00 00    	mov    DWORD PTR ds:0x0,edx
 853:	0f b6 55 f3          	movzx  edx,BYTE PTR [ebp-0xd]
 857:	8b 14 95 00 00 00 00 	mov    edx,DWORD PTR [edx*4+0x0]
 85e:	0f b6 12             	movzx  edx,BYTE PTR [edx]
 861:	88 10                	mov    BYTE PTR [eax],dl
 863:	90                   	nop
 864:	c9                   	leave  
 865:	c3                   	ret    
