
command/runcommand.o:     file format elf32-i386
command/runcommand.o


Disassembly of section .text:

00000000 <runcommand>:
   0:	55                   	push   ebp
   1:	89 e5                	mov    ebp,esp
   3:	81 ec 28 04 00 00    	sub    esp,0x428
   9:	8b 45 08             	mov    eax,DWORD PTR [ebp+0x8]
   c:	89 04 24             	mov    DWORD PTR [esp],eax
   f:	e8 fc ff ff ff       	call   10 <runcommand+0x10>
  14:	8b 45 08             	mov    eax,DWORD PTR [ebp+0x8]
  17:	89 45 f4             	mov    DWORD PTR [ebp-0xc],eax
  1a:	e9 56 01 00 00       	jmp    175 <runcommand+0x175>
  1f:	8b 45 f4             	mov    eax,DWORD PTR [ebp-0xc]
  22:	0f b6 00             	movzx  eax,BYTE PTR [eax]
  25:	3c 2e                	cmp    al,0x2e
  27:	0f 85 44 01 00 00    	jne    171 <runcommand+0x171>
  2d:	8b 45 f4             	mov    eax,DWORD PTR [ebp-0xc]
  30:	89 45 f0             	mov    DWORD PTR [ebp-0x10],eax
  33:	83 45 f0 01          	add    DWORD PTR [ebp-0x10],0x1
  37:	8b 45 f4             	mov    eax,DWORD PTR [ebp-0xc]
  3a:	8d 50 01             	lea    edx,[eax+0x1]
  3d:	89 55 f4             	mov    DWORD PTR [ebp-0xc],edx
  40:	0f b6 00             	movzx  eax,BYTE PTR [eax]
  43:	3c 52                	cmp    al,0x52
  45:	0f 85 85 00 00 00    	jne    d0 <runcommand+0xd0>
  4b:	8b 45 f4             	mov    eax,DWORD PTR [ebp-0xc]
  4e:	8d 50 01             	lea    edx,[eax+0x1]
  51:	89 55 f4             	mov    DWORD PTR [ebp-0xc],edx
  54:	0f b6 00             	movzx  eax,BYTE PTR [eax]
  57:	3c 55                	cmp    al,0x55
  59:	75 75                	jne    d0 <runcommand+0xd0>
  5b:	8b 45 f4             	mov    eax,DWORD PTR [ebp-0xc]
  5e:	8d 50 01             	lea    edx,[eax+0x1]
  61:	89 55 f4             	mov    DWORD PTR [ebp-0xc],edx
  64:	0f b6 00             	movzx  eax,BYTE PTR [eax]
  67:	3c 4e                	cmp    al,0x4e
  69:	75 65                	jne    d0 <runcommand+0xd0>
  6b:	8b 45 10             	mov    eax,DWORD PTR [ebp+0x10]
  6e:	89 44 24 08          	mov    DWORD PTR [esp+0x8],eax
  72:	8b 45 0c             	mov    eax,DWORD PTR [ebp+0xc]
  75:	89 44 24 04          	mov    DWORD PTR [esp+0x4],eax
  79:	8b 45 08             	mov    eax,DWORD PTR [ebp+0x8]
  7c:	89 04 24             	mov    DWORD PTR [esp],eax
  7f:	e8 fc ff ff ff       	call   80 <runcommand+0x80>
  84:	83 f8 ff             	cmp    eax,0xffffffff
  87:	75 3d                	jne    c6 <runcommand+0xc6>
  89:	e8 fc ff ff ff       	call   8a <runcommand+0x8a>
  8e:	89 45 ec             	mov    DWORD PTR [ebp-0x14],eax
  91:	8d 85 f0 fb ff ff    	lea    eax,[ebp-0x410]
  97:	89 44 24 04          	mov    DWORD PTR [esp+0x4],eax
  9b:	8b 45 ec             	mov    eax,DWORD PTR [ebp-0x14]
  9e:	89 04 24             	mov    DWORD PTR [esp],eax
  a1:	e8 fc ff ff ff       	call   a2 <runcommand+0xa2>
  a6:	8d 85 f0 fb ff ff    	lea    eax,[ebp-0x410]
  ac:	89 44 24 04          	mov    DWORD PTR [esp+0x4],eax
  b0:	c7 04 24 00 00 00 00 	mov    DWORD PTR [esp],0x0
  b7:	e8 fc ff ff ff       	call   b8 <runcommand+0xb8>
  bc:	b8 ff ff ff ff       	mov    eax,0xffffffff
  c1:	e9 68 01 00 00       	jmp    22e <runcommand+0x22e>
  c6:	b8 00 00 00 00       	mov    eax,0x0
  cb:	e9 5e 01 00 00       	jmp    22e <runcommand+0x22e>
  d0:	8b 45 f0             	mov    eax,DWORD PTR [ebp-0x10]
  d3:	89 45 f4             	mov    DWORD PTR [ebp-0xc],eax
  d6:	8b 45 f4             	mov    eax,DWORD PTR [ebp-0xc]
  d9:	8d 50 01             	lea    edx,[eax+0x1]
  dc:	89 55 f4             	mov    DWORD PTR [ebp-0xc],edx
  df:	0f b6 00             	movzx  eax,BYTE PTR [eax]
  e2:	3c 42                	cmp    al,0x42
  e4:	0f 85 85 00 00 00    	jne    16f <runcommand+0x16f>
  ea:	8b 45 f4             	mov    eax,DWORD PTR [ebp-0xc]
  ed:	8d 50 01             	lea    edx,[eax+0x1]
  f0:	89 55 f4             	mov    DWORD PTR [ebp-0xc],edx
  f3:	0f b6 00             	movzx  eax,BYTE PTR [eax]
  f6:	3c 41                	cmp    al,0x41
  f8:	75 75                	jne    16f <runcommand+0x16f>
  fa:	8b 45 f4             	mov    eax,DWORD PTR [ebp-0xc]
  fd:	8d 50 01             	lea    edx,[eax+0x1]
 100:	89 55 f4             	mov    DWORD PTR [ebp-0xc],edx
 103:	0f b6 00             	movzx  eax,BYTE PTR [eax]
 106:	3c 54                	cmp    al,0x54
 108:	75 65                	jne    16f <runcommand+0x16f>
 10a:	8b 45 10             	mov    eax,DWORD PTR [ebp+0x10]
 10d:	89 44 24 08          	mov    DWORD PTR [esp+0x8],eax
 111:	8b 45 0c             	mov    eax,DWORD PTR [ebp+0xc]
 114:	89 44 24 04          	mov    DWORD PTR [esp+0x4],eax
 118:	8b 45 08             	mov    eax,DWORD PTR [ebp+0x8]
 11b:	89 04 24             	mov    DWORD PTR [esp],eax
 11e:	e8 fc ff ff ff       	call   11f <runcommand+0x11f>
 123:	83 f8 ff             	cmp    eax,0xffffffff
 126:	75 3d                	jne    165 <runcommand+0x165>
 128:	e8 fc ff ff ff       	call   129 <runcommand+0x129>
 12d:	89 45 ec             	mov    DWORD PTR [ebp-0x14],eax
 130:	8d 85 f0 fb ff ff    	lea    eax,[ebp-0x410]
 136:	89 44 24 04          	mov    DWORD PTR [esp+0x4],eax
 13a:	8b 45 ec             	mov    eax,DWORD PTR [ebp-0x14]
 13d:	89 04 24             	mov    DWORD PTR [esp],eax
 140:	e8 fc ff ff ff       	call   141 <runcommand+0x141>
 145:	8d 85 f0 fb ff ff    	lea    eax,[ebp-0x410]
 14b:	89 44 24 04          	mov    DWORD PTR [esp+0x4],eax
 14f:	c7 04 24 00 00 00 00 	mov    DWORD PTR [esp],0x0
 156:	e8 fc ff ff ff       	call   157 <runcommand+0x157>
 15b:	b8 ff ff ff ff       	mov    eax,0xffffffff
 160:	e9 c9 00 00 00       	jmp    22e <runcommand+0x22e>
 165:	b8 00 00 00 00       	mov    eax,0x0
 16a:	e9 bf 00 00 00       	jmp    22e <runcommand+0x22e>
 16f:	eb 12                	jmp    183 <runcommand+0x183>
 171:	83 45 f4 01          	add    DWORD PTR [ebp-0xc],0x1
 175:	8b 45 f4             	mov    eax,DWORD PTR [ebp-0xc]
 178:	0f b6 00             	movzx  eax,BYTE PTR [eax]
 17b:	84 c0                	test   al,al
 17d:	0f 85 9c fe ff ff    	jne    1f <runcommand+0x1f>
 183:	8b 45 08             	mov    eax,DWORD PTR [ebp+0x8]
 186:	89 45 f4             	mov    DWORD PTR [ebp-0xc],eax
 189:	8b 45 08             	mov    eax,DWORD PTR [ebp+0x8]
 18c:	89 04 24             	mov    DWORD PTR [esp],eax
 18f:	e8 fc ff ff ff       	call   190 <runcommand+0x190>
 194:	01 45 f4             	add    DWORD PTR [ebp-0xc],eax
 197:	8b 45 f4             	mov    eax,DWORD PTR [ebp-0xc]
 19a:	89 45 f0             	mov    DWORD PTR [ebp-0x10],eax
 19d:	8b 45 f4             	mov    eax,DWORD PTR [ebp-0xc]
 1a0:	c6 00 2e             	mov    BYTE PTR [eax],0x2e
 1a3:	83 45 f4 01          	add    DWORD PTR [ebp-0xc],0x1
 1a7:	8b 45 f4             	mov    eax,DWORD PTR [ebp-0xc]
 1aa:	c6 00 52             	mov    BYTE PTR [eax],0x52
 1ad:	83 45 f4 01          	add    DWORD PTR [ebp-0xc],0x1
 1b1:	8b 45 f4             	mov    eax,DWORD PTR [ebp-0xc]
 1b4:	c6 00 55             	mov    BYTE PTR [eax],0x55
 1b7:	83 45 f4 01          	add    DWORD PTR [ebp-0xc],0x1
 1bb:	8b 45 f4             	mov    eax,DWORD PTR [ebp-0xc]
 1be:	c6 00 4e             	mov    BYTE PTR [eax],0x4e
 1c1:	8b 45 10             	mov    eax,DWORD PTR [ebp+0x10]
 1c4:	89 44 24 08          	mov    DWORD PTR [esp+0x8],eax
 1c8:	8b 45 0c             	mov    eax,DWORD PTR [ebp+0xc]
 1cb:	89 44 24 04          	mov    DWORD PTR [esp+0x4],eax
 1cf:	8b 45 08             	mov    eax,DWORD PTR [ebp+0x8]
 1d2:	89 04 24             	mov    DWORD PTR [esp],eax
 1d5:	e8 fc ff ff ff       	call   1d6 <runcommand+0x1d6>
 1da:	83 f8 ff             	cmp    eax,0xffffffff
 1dd:	75 4f                	jne    22e <runcommand+0x22e>
 1df:	8b 45 f0             	mov    eax,DWORD PTR [ebp-0x10]
 1e2:	89 45 f4             	mov    DWORD PTR [ebp-0xc],eax
 1e5:	8b 45 f4             	mov    eax,DWORD PTR [ebp-0xc]
 1e8:	c6 00 2e             	mov    BYTE PTR [eax],0x2e
 1eb:	83 45 f4 01          	add    DWORD PTR [ebp-0xc],0x1
 1ef:	8b 45 f4             	mov    eax,DWORD PTR [ebp-0xc]
 1f2:	c6 00 42             	mov    BYTE PTR [eax],0x42
 1f5:	83 45 f4 01          	add    DWORD PTR [ebp-0xc],0x1
 1f9:	8b 45 f4             	mov    eax,DWORD PTR [ebp-0xc]
 1fc:	c6 00 41             	mov    BYTE PTR [eax],0x41
 1ff:	83 45 f4 01          	add    DWORD PTR [ebp-0xc],0x1
 203:	8b 45 f4             	mov    eax,DWORD PTR [ebp-0xc]
 206:	c6 00 54             	mov    BYTE PTR [eax],0x54
 209:	8b 45 10             	mov    eax,DWORD PTR [ebp+0x10]
 20c:	89 44 24 08          	mov    DWORD PTR [esp+0x8],eax
 210:	8b 45 0c             	mov    eax,DWORD PTR [ebp+0xc]
 213:	89 44 24 04          	mov    DWORD PTR [esp+0x4],eax
 217:	8b 45 08             	mov    eax,DWORD PTR [ebp+0x8]
 21a:	89 04 24             	mov    DWORD PTR [esp],eax
 21d:	e8 fc ff ff ff       	call   21e <runcommand+0x21e>
 222:	83 f8 ff             	cmp    eax,0xffffffff
 225:	75 07                	jne    22e <runcommand+0x22e>
 227:	b8 ff ff ff ff       	mov    eax,0xffffffff
 22c:	eb 00                	jmp    22e <runcommand+0x22e>
 22e:	c9                   	leave  
 22f:	c3                   	ret    

00000230 <dobatchfile>:
 230:	55                   	push   ebp
 231:	89 e5                	mov    ebp,esp
 233:	81 ec 28 08 00 00    	sub    esp,0x828
 239:	83 7d 10 01          	cmp    DWORD PTR [ebp+0x10],0x1
 23d:	0f 85 95 00 00 00    	jne    2d8 <dobatchfile+0xa8>
 243:	8d 85 e4 fb ff ff    	lea    eax,[ebp-0x41c]
 249:	89 44 24 04          	mov    DWORD PTR [esp+0x4],eax
 24d:	c7 04 24 0b 00 00 00 	mov    DWORD PTR [esp],0xb
 254:	e8 fc ff ff ff       	call   255 <dobatchfile+0x25>
 259:	83 f8 ff             	cmp    eax,0xffffffff
 25c:	75 16                	jne    274 <dobatchfile+0x44>
 25e:	c7 04 24 14 00 00 00 	mov    DWORD PTR [esp],0x14
 265:	e8 fc ff ff ff       	call   266 <dobatchfile+0x36>
 26a:	b8 ff ff ff ff       	mov    eax,0xffffffff
 26f:	e9 89 02 00 00       	jmp    4fd <dobatchfile+0x2cd>
 274:	8b 45 08             	mov    eax,DWORD PTR [ebp+0x8]
 277:	89 44 24 04          	mov    DWORD PTR [esp+0x4],eax
 27b:	8d 85 e8 f7 ff ff    	lea    eax,[ebp-0x818]
 281:	89 04 24             	mov    DWORD PTR [esp],eax
 284:	e8 fc ff ff ff       	call   285 <dobatchfile+0x55>
 289:	c7 44 24 04 37 00 00 	mov    DWORD PTR [esp+0x4],0x37
 290:	00 
 291:	8d 85 e8 f7 ff ff    	lea    eax,[ebp-0x818]
 297:	89 04 24             	mov    DWORD PTR [esp],eax
 29a:	e8 fc ff ff ff       	call   29b <dobatchfile+0x6b>
 29f:	8b 45 0c             	mov    eax,DWORD PTR [ebp+0xc]
 2a2:	89 44 24 04          	mov    DWORD PTR [esp+0x4],eax
 2a6:	8d 85 e8 f7 ff ff    	lea    eax,[ebp-0x818]
 2ac:	89 04 24             	mov    DWORD PTR [esp],eax
 2af:	e8 fc ff ff ff       	call   2b0 <dobatchfile+0x80>
 2b4:	8b 45 10             	mov    eax,DWORD PTR [ebp+0x10]
 2b7:	89 44 24 08          	mov    DWORD PTR [esp+0x8],eax
 2bb:	8d 85 e8 f7 ff ff    	lea    eax,[ebp-0x818]
 2c1:	89 44 24 04          	mov    DWORD PTR [esp+0x4],eax
 2c5:	8d 85 e4 fb ff ff    	lea    eax,[ebp-0x41c]
 2cb:	89 04 24             	mov    DWORD PTR [esp],eax
 2ce:	e8 fc ff ff ff       	call   2cf <dobatchfile+0x9f>
 2d3:	e9 25 02 00 00       	jmp    4fd <dobatchfile+0x2cd>
 2d8:	c7 44 24 04 01 00 00 	mov    DWORD PTR [esp+0x4],0x1
 2df:	00 
 2e0:	8b 45 08             	mov    eax,DWORD PTR [ebp+0x8]
 2e3:	89 04 24             	mov    DWORD PTR [esp],eax
 2e6:	e8 fc ff ff ff       	call   2e7 <dobatchfile+0xb7>
 2eb:	89 45 ec             	mov    DWORD PTR [ebp-0x14],eax
 2ee:	83 7d ec ff          	cmp    DWORD PTR [ebp-0x14],0xffffffff
 2f2:	75 0a                	jne    2fe <dobatchfile+0xce>
 2f4:	b8 ff ff ff ff       	mov    eax,0xffffffff
 2f9:	e9 ff 01 00 00       	jmp    4fd <dobatchfile+0x2cd>
 2fe:	c7 44 24 08 39 00 00 	mov    DWORD PTR [esp+0x8],0x39
 305:	00 
 306:	c7 44 24 04 00 00 00 	mov    DWORD PTR [esp+0x4],0x0
 30d:	00 
 30e:	8b 45 0c             	mov    eax,DWORD PTR [ebp+0xc]
 311:	89 04 24             	mov    DWORD PTR [esp],eax
 314:	e8 fc ff ff ff       	call   315 <dobatchfile+0xe5>
 319:	89 45 e8             	mov    DWORD PTR [ebp-0x18],eax
 31c:	8d 85 e4 fb ff ff    	lea    eax,[ebp-0x41c]
 322:	89 44 24 04          	mov    DWORD PTR [esp+0x4],eax
 326:	8b 45 08             	mov    eax,DWORD PTR [ebp+0x8]
 329:	89 04 24             	mov    DWORD PTR [esp],eax
 32c:	e8 fc ff ff ff       	call   32d <dobatchfile+0xfd>
 331:	8d 85 e4 fb ff ff    	lea    eax,[ebp-0x41c]
 337:	89 44 24 04          	mov    DWORD PTR [esp+0x4],eax
 33b:	c7 04 24 3c 00 00 00 	mov    DWORD PTR [esp],0x3c
 342:	e8 fc ff ff ff       	call   343 <dobatchfile+0x113>
 347:	c7 45 f0 01 00 00 00 	mov    DWORD PTR [ebp-0x10],0x1
 34e:	eb 50                	jmp    3a0 <dobatchfile+0x170>
 350:	8d 85 e4 fb ff ff    	lea    eax,[ebp-0x41c]
 356:	89 45 f4             	mov    DWORD PTR [ebp-0xc],eax
 359:	8b 45 f4             	mov    eax,DWORD PTR [ebp-0xc]
 35c:	8d 50 01             	lea    edx,[eax+0x1]
 35f:	89 55 f4             	mov    DWORD PTR [ebp-0xc],edx
 362:	c6 00 25             	mov    BYTE PTR [eax],0x25
 365:	8b 45 f4             	mov    eax,DWORD PTR [ebp-0xc]
 368:	89 44 24 04          	mov    DWORD PTR [esp+0x4],eax
 36c:	8b 45 f0             	mov    eax,DWORD PTR [ebp-0x10]
 36f:	89 04 24             	mov    DWORD PTR [esp],eax
 372:	e8 fc ff ff ff       	call   373 <dobatchfile+0x143>
 377:	8b 45 f0             	mov    eax,DWORD PTR [ebp-0x10]
 37a:	c1 e0 02             	shl    eax,0x2
 37d:	89 c2                	mov    edx,eax
 37f:	c1 e2 08             	shl    edx,0x8
 382:	29 c2                	sub    edx,eax
 384:	8d 82 00 00 00 00    	lea    eax,[edx+0x0]
 38a:	89 44 24 04          	mov    DWORD PTR [esp+0x4],eax
 38e:	8d 85 e4 fb ff ff    	lea    eax,[ebp-0x41c]
 394:	89 04 24             	mov    DWORD PTR [esp],eax
 397:	e8 fc ff ff ff       	call   398 <dobatchfile+0x168>
 39c:	83 45 f0 01          	add    DWORD PTR [ebp-0x10],0x1
 3a0:	8b 45 f0             	mov    eax,DWORD PTR [ebp-0x10]
 3a3:	3b 45 e8             	cmp    eax,DWORD PTR [ebp-0x18]
 3a6:	72 a8                	jb     350 <dobatchfile+0x120>
 3a8:	8b 45 ec             	mov    eax,DWORD PTR [ebp-0x14]
 3ab:	89 04 24             	mov    DWORD PTR [esp],eax
 3ae:	e8 fc ff ff ff       	call   3af <dobatchfile+0x17f>
 3b3:	89 45 e4             	mov    DWORD PTR [ebp-0x1c],eax
 3b6:	8b 45 e4             	mov    eax,DWORD PTR [ebp-0x1c]
 3b9:	89 04 24             	mov    DWORD PTR [esp],eax
 3bc:	e8 fc ff ff ff       	call   3bd <dobatchfile+0x18d>
 3c1:	a3 00 00 00 00       	mov    ds:0x0,eax
 3c6:	a1 00 00 00 00       	mov    eax,ds:0x0
 3cb:	85 c0                	test   eax,eax
 3cd:	75 16                	jne    3e5 <dobatchfile+0x1b5>
 3cf:	c7 04 24 00 00 00 00 	mov    DWORD PTR [esp],0x0
 3d6:	e8 fc ff ff ff       	call   3d7 <dobatchfile+0x1a7>
 3db:	b8 ff ff ff ff       	mov    eax,0xffffffff
 3e0:	e9 18 01 00 00       	jmp    4fd <dobatchfile+0x2cd>
 3e5:	a1 00 00 00 00       	mov    eax,ds:0x0
 3ea:	a3 00 00 00 00       	mov    ds:0x0,eax
 3ef:	a1 00 00 00 00       	mov    eax,ds:0x0
 3f4:	8b 55 e4             	mov    edx,DWORD PTR [ebp-0x1c]
 3f7:	89 54 24 08          	mov    DWORD PTR [esp+0x8],edx
 3fb:	89 44 24 04          	mov    DWORD PTR [esp+0x4],eax
 3ff:	8b 45 ec             	mov    eax,DWORD PTR [ebp-0x14]
 402:	89 04 24             	mov    DWORD PTR [esp],eax
 405:	e8 fc ff ff ff       	call   406 <dobatchfile+0x1d6>
 40a:	83 f8 ff             	cmp    eax,0xffffffff
 40d:	75 0a                	jne    419 <dobatchfile+0x1e9>
 40f:	b8 ff ff ff ff       	mov    eax,0xffffffff
 414:	e9 e4 00 00 00       	jmp    4fd <dobatchfile+0x2cd>
 419:	c7 44 24 08 ff 00 00 	mov    DWORD PTR [esp+0x8],0xff
 420:	00 
 421:	c7 44 24 04 00 00 00 	mov    DWORD PTR [esp+0x4],0x0
 428:	00 
 429:	8d 85 e4 fb ff ff    	lea    eax,[ebp-0x41c]
 42f:	89 04 24             	mov    DWORD PTR [esp],eax
 432:	e8 fc ff ff ff       	call   433 <dobatchfile+0x203>
 437:	8d 85 e4 fb ff ff    	lea    eax,[ebp-0x41c]
 43d:	89 45 f4             	mov    DWORD PTR [ebp-0xc],eax
 440:	c7 04 24 01 00 00 00 	mov    DWORD PTR [esp],0x1
 447:	e8 fc ff ff ff       	call   448 <dobatchfile+0x218>
 44c:	e9 8b 00 00 00       	jmp    4dc <dobatchfile+0x2ac>
 451:	a1 00 00 00 00       	mov    eax,ds:0x0
 456:	0f b6 00             	movzx  eax,BYTE PTR [eax]
 459:	88 45 e3             	mov    BYTE PTR [ebp-0x1d],al
 45c:	8b 45 f4             	mov    eax,DWORD PTR [ebp-0xc]
 45f:	8d 50 01             	lea    edx,[eax+0x1]
 462:	89 55 f4             	mov    DWORD PTR [ebp-0xc],edx
 465:	8b 15 00 00 00 00    	mov    edx,DWORD PTR ds:0x0
 46b:	8d 4a 01             	lea    ecx,[edx+0x1]
 46e:	89 0d 00 00 00 00    	mov    DWORD PTR ds:0x0,ecx
 474:	0f b6 12             	movzx  edx,BYTE PTR [edx]
 477:	88 10                	mov    BYTE PTR [eax],dl
 479:	80 7d e3 0a          	cmp    BYTE PTR [ebp-0x1d],0xa
 47d:	75 5d                	jne    4dc <dobatchfile+0x2ac>
 47f:	8d 85 e4 fb ff ff    	lea    eax,[ebp-0x41c]
 485:	89 04 24             	mov    DWORD PTR [esp],eax
 488:	e8 fc ff ff ff       	call   489 <dobatchfile+0x259>
 48d:	e8 fc ff ff ff       	call   48e <dobatchfile+0x25e>
 492:	83 f8 02             	cmp    eax,0x2
 495:	75 1e                	jne    4b5 <dobatchfile+0x285>
 497:	8b 45 ec             	mov    eax,DWORD PTR [ebp-0x14]
 49a:	89 04 24             	mov    DWORD PTR [esp],eax
 49d:	e8 fc ff ff ff       	call   49e <dobatchfile+0x26e>
 4a2:	c7 04 24 00 00 00 00 	mov    DWORD PTR [esp],0x0
 4a9:	e8 fc ff ff ff       	call   4aa <dobatchfile+0x27a>
 4ae:	b8 00 00 00 00       	mov    eax,0x0
 4b3:	eb 48                	jmp    4fd <dobatchfile+0x2cd>
 4b5:	8d 85 e4 fb ff ff    	lea    eax,[ebp-0x41c]
 4bb:	89 45 f4             	mov    DWORD PTR [ebp-0xc],eax
 4be:	c7 44 24 08 ff 00 00 	mov    DWORD PTR [esp+0x8],0xff
 4c5:	00 
 4c6:	c7 44 24 04 00 00 00 	mov    DWORD PTR [esp+0x4],0x0
 4cd:	00 
 4ce:	8d 85 e4 fb ff ff    	lea    eax,[ebp-0x41c]
 4d4:	89 04 24             	mov    DWORD PTR [esp],eax
 4d7:	e8 fc ff ff ff       	call   4d8 <dobatchfile+0x2a8>
 4dc:	a1 00 00 00 00       	mov    eax,ds:0x0
 4e1:	0f b6 00             	movzx  eax,BYTE PTR [eax]
 4e4:	84 c0                	test   al,al
 4e6:	0f 85 65 ff ff ff    	jne    451 <dobatchfile+0x221>
 4ec:	c7 04 24 00 00 00 00 	mov    DWORD PTR [esp],0x0
 4f3:	e8 fc ff ff ff       	call   4f4 <dobatchfile+0x2c4>
 4f8:	b8 00 00 00 00       	mov    eax,0x0
 4fd:	c9                   	leave  
 4fe:	c3                   	ret    

000004ff <get_buf_pointer>:
 4ff:	55                   	push   ebp
 500:	89 e5                	mov    ebp,esp
 502:	a1 00 00 00 00       	mov    eax,ds:0x0
 507:	5d                   	pop    ebp
 508:	c3                   	ret    

00000509 <get_batch_mode>:
 509:	55                   	push   ebp
 50a:	89 e5                	mov    ebp,esp
 50c:	a1 00 00 00 00       	mov    eax,ds:0x0
 511:	5d                   	pop    ebp
 512:	c3                   	ret    

00000513 <set_batch_mode>:
 513:	55                   	push   ebp
 514:	89 e5                	mov    ebp,esp
 516:	8b 45 08             	mov    eax,DWORD PTR [ebp+0x8]
 519:	a3 00 00 00 00       	mov    ds:0x0,eax
 51e:	5d                   	pop    ebp
 51f:	c3                   	ret    

00000520 <set_current_batchfile_pointer>:
 520:	55                   	push   ebp
 521:	89 e5                	mov    ebp,esp
 523:	8b 45 08             	mov    eax,DWORD PTR [ebp+0x8]
 526:	a3 00 00 00 00       	mov    ds:0x0,eax
 52b:	5d                   	pop    ebp
 52c:	c3                   	ret    
